target datalayout = "e-m:e-p270:32:32-p271:32:32-p272:64:64-i64:64-i128:128-f80:128-n8:16:32:64-S128"
target triple = "x86_64-pc-linux-gnu"

%struct._object = type { i64, ptr }
%"struct.nanobind::detail::type_data" = type { i32, i32, ptr, ptr, ptr, ptr, ptr, ptr, ptr, ptr, %union.anon, ptr, ptr }
%union.anon = type { %struct.anon }
%struct.anon = type { ptr, ptr }
%"struct.nanobind::detail::nb_inst" = type { %struct._object, i32, i32 }

; Function Attrs: inlinehint mustprogress nounwind uwtable
define linkonce_odr hidden noundef ptr @_ZN8nanobind6detail8inst_ptrEPNS0_7nb_instE(ptr noundef %0) #2 comdat {
  %2 = alloca ptr, align 8
  %3 = alloca ptr, align 8
  store ptr %0, ptr %2, align 8
  call void @llvm.lifetime.start.p0(i64 8, ptr %3) #20
  %4 = load ptr, ptr %2, align 8
  %5 = ptrtoint ptr %4 to i64
  %6 = load ptr, ptr %2, align 8
  %7 = getelementptr inbounds nuw %"struct.nanobind::detail::nb_inst", ptr %6, i32 0, i32 1
  %8 = load i32, ptr %7, align 8
  %9 = sext i32 %8 to i64
  %10 = add nsw i64 %5, %9
  %11 = inttoptr i64 %10 to ptr
  store ptr %11, ptr %3, align 8
  %12 = load ptr, ptr %2, align 8
  %13 = getelementptr inbounds nuw %"struct.nanobind::detail::nb_inst", ptr %12, i32 0, i32 2
  %14 = load i32, ptr %13, align 4
  %15 = lshr i32 %14, 2
  %16 = and i32 %15, 1
  %17 = icmp ne i32 %16, 0
  br i1 %17, label %18, label %20

18:                                               ; preds = %1
  %19 = load ptr, ptr %3, align 8
  br label %23

20:                                               ; preds = %1
  %21 = load ptr, ptr %3, align 8
  %22 = load ptr, ptr %21, align 8
  br label %23

23:                                               ; preds = %20, %18
  %24 = phi ptr [ %19, %18 ], [ %22, %20 ]
  call void @llvm.lifetime.end.p0(i64 8, ptr %3) #20
  ret ptr %24
}

; Function Attrs: alwaysinline mustprogress nounwind uwtable
define linkonce_odr hidden noundef ptr @_ZN8nanobind6detail12nb_type_dataEP11_typeobject(ptr noundef %0) #5 comdat {
  %2 = alloca ptr, align 8
  store ptr %0, ptr %2, align 8
  %3 = load ptr, ptr %2, align 8
  %4 = getelementptr inbounds nuw i8, ptr %3, i64 888
  ret ptr %4
}

; Function Attrs: mustprogress nounwind uwtable
define void @_ZN8nanobind6detail12nb_inst_moveEP7_objectPKS1_(ptr noundef %0, ptr noundef %1) #6 personality ptr @__gxx_personality_v0 {
  %3 = alloca ptr, align 8
  %4 = alloca ptr, align 8
  %5 = alloca ptr, align 8
  %6 = alloca ptr, align 8
  %7 = alloca ptr, align 8
  %8 = alloca ptr, align 8
  %9 = alloca ptr, align 8
  store ptr %0, ptr %3, align 8
  store ptr %1, ptr %4, align 8
  %10 = load ptr, ptr %4, align 8
  %11 = load ptr, ptr %3, align 8
  %12 = icmp eq ptr %10, %11
  br i1 %12, label %13, label %14

13:                                               ; preds = %2
  br label %82

14:                                               ; preds = %2
  call void @llvm.lifetime.start.p0(i64 8, ptr %5) #20
  %15 = load ptr, ptr %4, align 8
  %16 = getelementptr inbounds nuw %struct._object, ptr %15, i32 0, i32 1
  %17 = load ptr, ptr %16, align 8
  store ptr %17, ptr %5, align 8
  call void @llvm.lifetime.start.p0(i64 8, ptr %6) #20
  %18 = load ptr, ptr %5, align 8
  %19 = call noundef ptr @_ZN8nanobind6detail12nb_type_dataEP11_typeobject(ptr noundef %18) #20
  store ptr %19, ptr %6, align 8
  %20 = load ptr, ptr %5, align 8
  %21 = load ptr, ptr %3, align 8
  %22 = getelementptr inbounds nuw %struct._object, ptr %21, i32 0, i32 1
  %23 = load ptr, ptr %22, align 8
  %24 = icmp eq ptr %20, %23
  br i1 %24, label %25, label %32

25:                                               ; preds = %14
  %26 = load ptr, ptr %6, align 8
  %27 = getelementptr inbounds nuw %"struct.nanobind::detail::type_data", ptr %26, i32 0, i32 1
  %28 = load i32, ptr %27, align 4
  %29 = lshr i32 %28, 8
  %30 = and i32 %29, 4
  %31 = icmp ne i32 %30, 0
  br label %32

32:                                               ; preds = %25, %14
  %33 = phi i1 [ false, %14 ], [ %31, %25 ]
  %34 = xor i1 %33, true
  %35 = zext i1 %34 to i64
  %36 = call i64 @llvm.expect.i64(i64 %35, i64 0)
  %37 = icmp ne i64 %36, 0
  br i1 %37, label %38, label %39

38:                                               ; preds = %32
  call void @_ZN8nanobind6detail16fail_unspecifiedEv() #22
  unreachable

39:                                               ; preds = %32
  call void @llvm.lifetime.start.p0(i64 8, ptr %7) #20
  %40 = load ptr, ptr %3, align 8
  store ptr %40, ptr %7, align 8
  call void @llvm.lifetime.start.p0(i64 8, ptr %8) #20
  %41 = load ptr, ptr %4, align 8
  %42 = invoke noundef ptr @_ZN8nanobind6detail8inst_ptrEPNS0_7nb_instE(ptr noundef %41)
          to label %43 unwind label %83

43:                                               ; preds = %39
  store ptr %42, ptr %8, align 8
  call void @llvm.lifetime.start.p0(i64 8, ptr %9) #20
  %44 = load ptr, ptr %7, align 8
  %45 = invoke noundef ptr @_ZN8nanobind6detail8inst_ptrEPNS0_7nb_instE(ptr noundef %44)
          to label %46 unwind label %83

46:                                               ; preds = %43
  store ptr %45, ptr %9, align 8
  %47 = load ptr, ptr %6, align 8
  %48 = getelementptr inbounds nuw %"struct.nanobind::detail::type_data", ptr %47, i32 0, i32 1
  %49 = load i32, ptr %48, align 4
  %50 = lshr i32 %49, 8
  %51 = and i32 %50, 64
  %52 = icmp ne i32 %51, 0
  br i1 %52, label %53, label %59

53:                                               ; preds = %46
  %54 = load ptr, ptr %6, align 8
  %55 = getelementptr inbounds nuw %"struct.nanobind::detail::type_data", ptr %54, i32 0, i32 9
  %56 = load ptr, ptr %55, align 8
  %57 = load ptr, ptr %9, align 8
  %58 = load ptr, ptr %8, align 8
  call void %56(ptr noundef %57, ptr noundef %58) #20
  br label %71

59:                                               ; preds = %46
  %60 = load ptr, ptr %9, align 8
  %61 = load ptr, ptr %8, align 8
  %62 = load ptr, ptr %6, align 8
  %63 = getelementptr inbounds nuw %"struct.nanobind::detail::type_data", ptr %62, i32 0, i32 0
  %64 = load i32, ptr %63, align 8
  %65 = zext i32 %64 to i64
  call void @llvm.memcpy.p0.p0.i64(ptr align 1 %60, ptr align 1 %61, i64 %65, i1 false)
  %66 = load ptr, ptr %8, align 8
  %67 = load ptr, ptr %6, align 8
  %68 = getelementptr inbounds nuw %"struct.nanobind::detail::type_data", ptr %67, i32 0, i32 0
  %69 = load i32, ptr %68, align 8
  %70 = zext i32 %69 to i64
  call void @llvm.memset.p0.i64(ptr align 1 %66, i8 0, i64 %70, i1 false)
  br label %71

71:                                               ; preds = %59, %53
  %72 = load ptr, ptr %7, align 8
  %73 = getelementptr inbounds nuw %"struct.nanobind::detail::nb_inst", ptr %72, i32 0, i32 2
  %74 = load i32, ptr %73, align 4
  %75 = and i32 %74, -4
  %76 = or i32 %75, 2
  store i32 %76, ptr %73, align 4
  %77 = load ptr, ptr %7, align 8
  %78 = getelementptr inbounds nuw %"struct.nanobind::detail::nb_inst", ptr %77, i32 0, i32 2
  %79 = load i32, ptr %78, align 4
  %80 = and i32 %79, -17
  %81 = or i32 %80, 16
  store i32 %81, ptr %78, align 4
  call void @llvm.lifetime.end.p0(i64 8, ptr %9) #20
  call void @llvm.lifetime.end.p0(i64 8, ptr %8) #20
  call void @llvm.lifetime.end.p0(i64 8, ptr %7) #20
  call void @llvm.lifetime.end.p0(i64 8, ptr %6) #20
  call void @llvm.lifetime.end.p0(i64 8, ptr %5) #20
  br label %82

82:                                               ; preds = %71, %13
  ret void

83:                                               ; preds = %43, %39
  %84 = landingpad { ptr, i32 }
          catch ptr null
  %85 = extractvalue { ptr, i32 } %84, 0
  call void @__clang_call_terminate(ptr %85) #22
  unreachable
}

; Function Attrs: mustprogress nounwind uwtable
define void @_ZN8nanobind6detail16nb_inst_destructEP7_object(ptr noundef %0) #6 personality ptr @__gxx_personality_v0 {
  %2 = alloca ptr, align 8
  %3 = alloca ptr, align 8
  %4 = alloca ptr, align 8
  store ptr %0, ptr %2, align 8
  call void @llvm.lifetime.start.p0(i64 8, ptr %3) #20
  %5 = load ptr, ptr %2, align 8
  store ptr %5, ptr %3, align 8
  call void @llvm.lifetime.start.p0(i64 8, ptr %4) #20
  %6 = load ptr, ptr %2, align 8
  %7 = getelementptr inbounds nuw %struct._object, ptr %6, i32 0, i32 1
  %8 = load ptr, ptr %7, align 8
  %9 = call noundef ptr @_ZN8nanobind6detail12nb_type_dataEP11_typeobject(ptr noundef %8) #20
  store ptr %9, ptr %4, align 8
  %10 = load ptr, ptr %3, align 8
  %11 = getelementptr inbounds nuw %"struct.nanobind::detail::nb_inst", ptr %10, i32 0, i32 2
  %12 = load i32, ptr %11, align 4
  %13 = and i32 %12, 3
  %14 = icmp ne i32 %13, 1
  %15 = xor i1 %14, true
  %16 = zext i1 %15 to i64
  %17 = call i64 @llvm.expect.i64(i64 %16, i64 0)
  %18 = icmp ne i64 %17, 0
  br i1 %18, label %19, label %20

19:                                               ; preds = %1
  call void @_ZN8nanobind6detail16fail_unspecifiedEv() #22
  unreachable

20:                                               ; preds = %1
  %21 = load ptr, ptr %3, align 8
  %22 = getelementptr inbounds nuw %"struct.nanobind::detail::nb_inst", ptr %21, i32 0, i32 2
  %23 = load i32, ptr %22, align 4
  %24 = lshr i32 %23, 4
  %25 = and i32 %24, 1
  %26 = icmp ne i32 %25, 0
  br i1 %26, label %27, label %60

27:                                               ; preds = %20
  %28 = load ptr, ptr %4, align 8
  %29 = getelementptr inbounds nuw %"struct.nanobind::detail::type_data", ptr %28, i32 0, i32 1
  %30 = load i32, ptr %29, align 4
  %31 = lshr i32 %30, 8
  %32 = and i32 %31, 1
  %33 = icmp ne i32 %32, 0
  %34 = xor i1 %33, true
  %35 = zext i1 %34 to i64
  %36 = call i64 @llvm.expect.i64(i64 %35, i64 0)
  %37 = icmp ne i64 %36, 0
  br i1 %37, label %38, label %39

38:                                               ; preds = %27
  call void @_ZN8nanobind6detail16fail_unspecifiedEv() #22
  unreachable

39:                                               ; preds = %27
  %40 = load ptr, ptr %4, align 8
  %41 = getelementptr inbounds nuw %"struct.nanobind::detail::type_data", ptr %40, i32 0, i32 1
  %42 = load i32, ptr %41, align 4
  %43 = lshr i32 %42, 8
  %44 = and i32 %43, 16
  %45 = icmp ne i32 %44, 0
  br i1 %45, label %46, label %54

46:                                               ; preds = %39
  %47 = load ptr, ptr %4, align 8
  %48 = getelementptr inbounds nuw %"struct.nanobind::detail::type_data", ptr %47, i32 0, i32 7
  %49 = load ptr, ptr %48, align 8
  %50 = load ptr, ptr %3, align 8
  %51 = invoke noundef ptr @_ZN8nanobind6detail8inst_ptrEPNS0_7nb_instE(ptr noundef %50)
          to label %52 unwind label %66

52:                                               ; preds = %46
  invoke void %49(ptr noundef %51)
          to label %53 unwind label %66

53:                                               ; preds = %52
  br label %54

54:                                               ; preds = %53, %39
  %55 = load ptr, ptr %3, align 8
  %56 = getelementptr inbounds nuw %"struct.nanobind::detail::nb_inst", ptr %55, i32 0, i32 2
  %57 = load i32, ptr %56, align 4
  %58 = and i32 %57, -17
  %59 = or i32 %58, 0
  store i32 %59, ptr %56, align 4
  br label %60

60:                                               ; preds = %54, %20
  %61 = load ptr, ptr %3, align 8
  %62 = getelementptr inbounds nuw %"struct.nanobind::detail::nb_inst", ptr %61, i32 0, i32 2
  %63 = load i32, ptr %62, align 4
  %64 = and i32 %63, -4
  %65 = or i32 %64, 0
  store i32 %65, ptr %62, align 4
  call void @llvm.lifetime.end.p0(i64 8, ptr %4) #20
  call void @llvm.lifetime.end.p0(i64 8, ptr %3) #20
  ret void

66:                                               ; preds = %52, %46
  %67 = landingpad { ptr, i32 }
          catch ptr null
  %68 = extractvalue { ptr, i32 } %67, 0
  call void @__clang_call_terminate(ptr %68) #22
  unreachable
}

; Function Attrs: mustprogress nounwind uwtable
define void @_ZN8nanobind6detail20nb_inst_replace_moveEP7_objectPKS1_(ptr noundef %0, ptr noundef %1) #6 {
  %3 = alloca ptr, align 8
  %4 = alloca ptr, align 8
  %5 = alloca ptr, align 8
  %6 = alloca i8, align 1
  store ptr %0, ptr %3, align 8
  store ptr %1, ptr %4, align 8
  %7 = load ptr, ptr %4, align 8
  %8 = load ptr, ptr %3, align 8
  %9 = icmp eq ptr %7, %8
  br i1 %9, label %10, label %11

10:                                               ; preds = %2
  br label %38

11:                                               ; preds = %2
  call void @llvm.lifetime.start.p0(i64 8, ptr %5) #20
  %12 = load ptr, ptr %3, align 8
  store ptr %12, ptr %5, align 8
  call void @llvm.lifetime.start.p0(i64 1, ptr %6) #20
  %13 = load ptr, ptr %5, align 8
  %14 = getelementptr inbounds nuw %"struct.nanobind::detail::nb_inst", ptr %13, i32 0, i32 2
  %15 = load i32, ptr %14, align 4
  %16 = lshr i32 %15, 4
  %17 = and i32 %16, 1
  %18 = icmp ne i32 %17, 0
  %19 = zext i1 %18 to i8
  store i8 %19, ptr %6, align 1
  %20 = load ptr, ptr %5, align 8
  %21 = getelementptr inbounds nuw %"struct.nanobind::detail::nb_inst", ptr %20, i32 0, i32 2
  %22 = load i32, ptr %21, align 4
  %23 = and i32 %22, -17
  %24 = or i32 %23, 16
  store i32 %24, ptr %21, align 4
  %25 = load ptr, ptr %3, align 8
  call void @_ZN8nanobind6detail16nb_inst_destructEP7_object(ptr noundef %25) #20
  %26 = load ptr, ptr %3, align 8
  %27 = load ptr, ptr %4, align 8
  call void @_ZN8nanobind6detail12nb_inst_moveEP7_objectPKS1_(ptr noundef %26, ptr noundef %27) #20
  %28 = load i8, ptr %6, align 1, !range !3, !noundef !4
  %29 = trunc i8 %28 to i1
  %30 = zext i1 %29 to i32
  %31 = load ptr, ptr %5, align 8
  %32 = getelementptr inbounds nuw %"struct.nanobind::detail::nb_inst", ptr %31, i32 0, i32 2
  %33 = load i32, ptr %32, align 4
  %34 = and i32 %30, 1
  %35 = shl i32 %34, 4
  %36 = and i32 %33, -17
  %37 = or i32 %36, %35
  store i32 %37, ptr %32, align 4
  call void @llvm.lifetime.end.p0(i64 1, ptr %6) #20
  call void @llvm.lifetime.end.p0(i64 8, ptr %5) #20
  br label %38

38:                                               ; preds = %11, %10
  ret void
}