; Function Attrs: mustprogress nounwind uwtable
define void @_ZN8nanobind6detail20nb_inst_replace_moveEP7_objectPKS1_(ptr noundef %0, ptr noundef %1) local_unnamed_addr #5 personality ptr @__gxx_personality_v0 {
  %3 = icmp eq ptr %1, %0
  br i1 %3, label %84, label %4

4:                                                ; preds = %2
  %5 = getelementptr inbounds nuw i8, ptr %0, i64 20
  %6 = load i32, ptr %5, align 4
  %7 = or i32 %6, 16
  store i32 %7, ptr %5, align 4
  %8 = getelementptr inbounds nuw i8, ptr %0, i64 8
  %9 = load ptr, ptr %8, align 8
  %10 = and i32 %6, 3
  %.not.i = icmp eq i32 %10, 1
  br i1 %.not.i, label %11, label %12, !prof !4

11:                                               ; preds = %4
  tail call void @_ZN8nanobind6detail16fail_unspecifiedEv() #30
  unreachable

12:                                               ; preds = %4
  %13 = getelementptr inbounds nuw i8, ptr %9, i64 892
  %14 = load i32, ptr %13, align 4
  %15 = and i32 %14, 256
  %.not11.i = icmp eq i32 %15, 0
  br i1 %.not11.i, label %16, label %17, !prof !4

16:                                               ; preds = %12
  tail call void @_ZN8nanobind6detail16fail_unspecifiedEv() #30
  unreachable

17:                                               ; preds = %12
  %18 = and i32 %14, 4096
  %.not12.i = icmp eq i32 %18, 0
  br i1 %.not12.i, label %35, label %19

19:                                               ; preds = %17
  %20 = getelementptr inbounds nuw i8, ptr %9, i64 936
  %21 = load ptr, ptr %20, align 8
  %22 = ptrtoint ptr %0 to i64
  %23 = getelementptr inbounds nuw i8, ptr %0, i64 16
  %24 = load i32, ptr %23, align 8
  %25 = sext i32 %24 to i64
  %26 = add nsw i64 %25, %22
  %27 = inttoptr i64 %26 to ptr
  %28 = and i32 %6, 4
  %.not.i.i = icmp eq i32 %28, 0
  br i1 %.not.i.i, label %29, label %_ZN8nanobind6detail8inst_ptrEPNS0_7nb_instE.exit.i

29:                                               ; preds = %19
  %30 = load ptr, ptr %27, align 8
  br label %_ZN8nanobind6detail8inst_ptrEPNS0_7nb_instE.exit.i

_ZN8nanobind6detail8inst_ptrEPNS0_7nb_instE.exit.i: ; preds = %29, %19
  %31 = phi ptr [ %30, %29 ], [ %27, %19 ]
  invoke void %21(ptr noundef %31)
          to label %_ZN8nanobind6detail8inst_ptrEPNS0_7nb_instE.exit._crit_edge.i unwind label %32

_ZN8nanobind6detail8inst_ptrEPNS0_7nb_instE.exit._crit_edge.i: ; preds = %_ZN8nanobind6detail8inst_ptrEPNS0_7nb_instE.exit.i
  %.pre.i = load i32, ptr %5, align 4
  %.pre = load ptr, ptr %8, align 8
  br label %35

32:                                               ; preds = %_ZN8nanobind6detail8inst_ptrEPNS0_7nb_instE.exit.i
  %33 = landingpad { ptr, i32 }
          catch ptr null
  %34 = extractvalue { ptr, i32 } %33, 0
  tail call void @__clang_call_terminate(ptr %34) #30
  unreachable

35:                                               ; preds = %_ZN8nanobind6detail8inst_ptrEPNS0_7nb_instE.exit._crit_edge.i, %17
  %36 = phi ptr [ %.pre, %_ZN8nanobind6detail8inst_ptrEPNS0_7nb_instE.exit._crit_edge.i ], [ %9, %17 ]
  %37 = phi i32 [ %.pre.i, %_ZN8nanobind6detail8inst_ptrEPNS0_7nb_instE.exit._crit_edge.i ], [ %7, %17 ]
  %38 = and i32 %37, -20
  store i32 %38, ptr %5, align 4
  %39 = getelementptr inbounds nuw i8, ptr %1, i64 8
  %40 = load ptr, ptr %39, align 8
  %41 = getelementptr inbounds nuw i8, ptr %40, i64 888
  %42 = icmp eq ptr %40, %36
  br i1 %42, label %43, label %.critedge.i, !prof !3

43:                                               ; preds = %35
  %44 = getelementptr inbounds nuw i8, ptr %40, i64 892
  %45 = load i32, ptr %44, align 4
  %46 = and i32 %45, 1024
  %47 = icmp eq i32 %46, 0
  br i1 %47, label %.critedge.i, label %48, !prof !4

.critedge.i:                                      ; preds = %43, %35
  tail call void @_ZN8nanobind6detail16fail_unspecifiedEv() #30
  unreachable

48:                                               ; preds = %43
  %49 = ptrtoint ptr %1 to i64
  %50 = getelementptr inbounds nuw i8, ptr %1, i64 16
  %51 = load i32, ptr %50, align 8
  %52 = sext i32 %51 to i64
  %53 = add nsw i64 %52, %49
  %54 = inttoptr i64 %53 to ptr
  %55 = getelementptr inbounds nuw i8, ptr %1, i64 20
  %56 = load i32, ptr %55, align 4
  %57 = and i32 %56, 4
  %.not.i.i10 = icmp eq i32 %57, 0
  br i1 %.not.i.i10, label %58, label %_ZN8nanobind6detail8inst_ptrEPNS0_7nb_instE.exit.i11

58:                                               ; preds = %48
  %59 = load ptr, ptr %54, align 8
  br label %_ZN8nanobind6detail8inst_ptrEPNS0_7nb_instE.exit.i11

_ZN8nanobind6detail8inst_ptrEPNS0_7nb_instE.exit.i11: ; preds = %58, %48
  %60 = phi ptr [ %59, %58 ], [ %54, %48 ]
  %61 = ptrtoint ptr %0 to i64
  %62 = getelementptr inbounds nuw i8, ptr %0, i64 16
  %63 = load i32, ptr %62, align 8
  %64 = sext i32 %63 to i64
  %65 = add nsw i64 %64, %61
  %66 = inttoptr i64 %65 to ptr
  %67 = and i32 %37, 4
  %.not.i22.i = icmp eq i32 %67, 0
  br i1 %.not.i22.i, label %68, label %_ZN8nanobind6detail8inst_ptrEPNS0_7nb_instE.exit23.i

68:                                               ; preds = %_ZN8nanobind6detail8inst_ptrEPNS0_7nb_instE.exit.i11
  %69 = load ptr, ptr %66, align 8
  br label %_ZN8nanobind6detail8inst_ptrEPNS0_7nb_instE.exit23.i

_ZN8nanobind6detail8inst_ptrEPNS0_7nb_instE.exit23.i: ; preds = %68, %_ZN8nanobind6detail8inst_ptrEPNS0_7nb_instE.exit.i11
  %70 = phi ptr [ %69, %68 ], [ %66, %_ZN8nanobind6detail8inst_ptrEPNS0_7nb_instE.exit.i11 ]
  %71 = and i32 %45, 16384
  %.not.i12 = icmp eq i32 %71, 0
  br i1 %.not.i12, label %75, label %72

72:                                               ; preds = %_ZN8nanobind6detail8inst_ptrEPNS0_7nb_instE.exit23.i
  %73 = getelementptr inbounds nuw i8, ptr %40, i64 952
  %74 = load ptr, ptr %73, align 8
  tail call void %74(ptr noundef %70, ptr noundef %60) #29
  br label %_ZN8nanobind6detail12nb_inst_moveEP7_objectPKS1_.exit

75:                                               ; preds = %_ZN8nanobind6detail8inst_ptrEPNS0_7nb_instE.exit23.i
  %76 = load i32, ptr %41, align 8
  %77 = zext i32 %76 to i64
  tail call void @llvm.memcpy.p0.p0.i64(ptr align 1 %70, ptr align 1 %60, i64 %77, i1 false)
  %78 = load i32, ptr %41, align 8
  %79 = zext i32 %78 to i64
  tail call void @llvm.memset.p0.i64(ptr align 1 %60, i8 0, i64 %79, i1 false)
  br label %_ZN8nanobind6detail12nb_inst_moveEP7_objectPKS1_.exit

_ZN8nanobind6detail12nb_inst_moveEP7_objectPKS1_.exit: ; preds = %72, %75
  %80 = load i32, ptr %5, align 4
  %81 = and i32 %80, -20
  %.lobit = and i32 %6, 16
  %82 = or disjoint i32 %.lobit, %81
  %83 = or disjoint i32 %82, 2
  store i32 %83, ptr %5, align 4
  br label %84

84:                                               ; preds = %2, %_ZN8nanobind6detail12nb_inst_moveEP7_objectPKS1_.exit
  ret void
}